
Midiproject.elf:     file format elf32-avr

Sections:
Idx Name          Size      VMA       LMA       File off  Algn
  0 .data         00000006  00800200  000007c8  0000085c  2**0
                  CONTENTS, ALLOC, LOAD, DATA
  1 .text         000007c8  00000000  00000000  00000094  2**1
                  CONTENTS, ALLOC, LOAD, READONLY, CODE
  2 .bss          00000506  00800206  00800206  00000862  2**0
                  ALLOC
  3 .comment      00000030  00000000  00000000  00000862  2**0
                  CONTENTS, READONLY
  4 .debug_aranges 000000f0  00000000  00000000  00000892  2**0
                  CONTENTS, READONLY, DEBUGGING
  5 .debug_info   000008d1  00000000  00000000  00000982  2**0
                  CONTENTS, READONLY, DEBUGGING
  6 .debug_abbrev 000003d9  00000000  00000000  00001253  2**0
                  CONTENTS, READONLY, DEBUGGING
  7 .debug_line   00000d1e  00000000  00000000  0000162c  2**0
                  CONTENTS, READONLY, DEBUGGING
  8 .debug_frame  00000250  00000000  00000000  0000234c  2**2
                  CONTENTS, READONLY, DEBUGGING
  9 .debug_str    00008b87  00000000  00000000  0000259c  2**0
                  CONTENTS, READONLY, DEBUGGING
 10 .debug_loc    00000950  00000000  00000000  0000b123  2**0
                  CONTENTS, READONLY, DEBUGGING
 11 .debug_ranges 000000c0  00000000  00000000  0000ba73  2**0
                  CONTENTS, READONLY, DEBUGGING
 12 .debug_macro  00003870  00000000  00000000  0000bb33  2**0
                  CONTENTS, READONLY, DEBUGGING

Disassembly of section .text:

00000000 <__vectors>:
   0:	71 c0       	rjmp	.+226    	; 0xe4 <__ctors_end>
   2:	00 00       	nop
   4:	8e c0       	rjmp	.+284    	; 0x122 <__bad_interrupt>
   6:	00 00       	nop
   8:	8c c0       	rjmp	.+280    	; 0x122 <__bad_interrupt>
   a:	00 00       	nop
   c:	8a c0       	rjmp	.+276    	; 0x122 <__bad_interrupt>
   e:	00 00       	nop
  10:	88 c0       	rjmp	.+272    	; 0x122 <__bad_interrupt>
  12:	00 00       	nop
  14:	86 c0       	rjmp	.+268    	; 0x122 <__bad_interrupt>
  16:	00 00       	nop
  18:	84 c0       	rjmp	.+264    	; 0x122 <__bad_interrupt>
  1a:	00 00       	nop
  1c:	82 c0       	rjmp	.+260    	; 0x122 <__bad_interrupt>
  1e:	00 00       	nop
  20:	80 c0       	rjmp	.+256    	; 0x122 <__bad_interrupt>
  22:	00 00       	nop
  24:	7e c0       	rjmp	.+252    	; 0x122 <__bad_interrupt>
  26:	00 00       	nop
  28:	7c c0       	rjmp	.+248    	; 0x122 <__bad_interrupt>
  2a:	00 00       	nop
  2c:	7a c0       	rjmp	.+244    	; 0x122 <__bad_interrupt>
  2e:	00 00       	nop
  30:	78 c0       	rjmp	.+240    	; 0x122 <__bad_interrupt>
  32:	00 00       	nop
  34:	76 c0       	rjmp	.+236    	; 0x122 <__bad_interrupt>
  36:	00 00       	nop
  38:	74 c0       	rjmp	.+232    	; 0x122 <__bad_interrupt>
  3a:	00 00       	nop
  3c:	72 c0       	rjmp	.+228    	; 0x122 <__bad_interrupt>
  3e:	00 00       	nop
  40:	70 c0       	rjmp	.+224    	; 0x122 <__bad_interrupt>
  42:	00 00       	nop
  44:	7f c2       	rjmp	.+1278   	; 0x544 <__vector_17>
  46:	00 00       	nop
  48:	6c c0       	rjmp	.+216    	; 0x122 <__bad_interrupt>
  4a:	00 00       	nop
  4c:	6a c0       	rjmp	.+212    	; 0x122 <__bad_interrupt>
  4e:	00 00       	nop
  50:	68 c0       	rjmp	.+208    	; 0x122 <__bad_interrupt>
  52:	00 00       	nop
  54:	66 c0       	rjmp	.+204    	; 0x122 <__bad_interrupt>
  56:	00 00       	nop
  58:	64 c0       	rjmp	.+200    	; 0x122 <__bad_interrupt>
  5a:	00 00       	nop
  5c:	06 c2       	rjmp	.+1036   	; 0x46a <__vector_23>
  5e:	00 00       	nop
  60:	60 c0       	rjmp	.+192    	; 0x122 <__bad_interrupt>
  62:	00 00       	nop
  64:	75 c0       	rjmp	.+234    	; 0x150 <__vector_25>
  66:	00 00       	nop
  68:	5c c0       	rjmp	.+184    	; 0x122 <__bad_interrupt>
  6a:	00 00       	nop
  6c:	5a c0       	rjmp	.+180    	; 0x122 <__bad_interrupt>
  6e:	00 00       	nop
  70:	58 c0       	rjmp	.+176    	; 0x122 <__bad_interrupt>
  72:	00 00       	nop
  74:	cb c1       	rjmp	.+918    	; 0x40c <__vector_29>
  76:	00 00       	nop
  78:	54 c0       	rjmp	.+168    	; 0x122 <__bad_interrupt>
  7a:	00 00       	nop
  7c:	52 c0       	rjmp	.+164    	; 0x122 <__bad_interrupt>
  7e:	00 00       	nop
  80:	50 c0       	rjmp	.+160    	; 0x122 <__bad_interrupt>
  82:	00 00       	nop
  84:	4e c0       	rjmp	.+156    	; 0x122 <__bad_interrupt>
  86:	00 00       	nop
  88:	4c c0       	rjmp	.+152    	; 0x122 <__bad_interrupt>
  8a:	00 00       	nop
  8c:	4a c0       	rjmp	.+148    	; 0x122 <__bad_interrupt>
  8e:	00 00       	nop
  90:	48 c0       	rjmp	.+144    	; 0x122 <__bad_interrupt>
  92:	00 00       	nop
  94:	46 c0       	rjmp	.+140    	; 0x122 <__bad_interrupt>
  96:	00 00       	nop
  98:	44 c0       	rjmp	.+136    	; 0x122 <__bad_interrupt>
  9a:	00 00       	nop
  9c:	42 c0       	rjmp	.+132    	; 0x122 <__bad_interrupt>
  9e:	00 00       	nop
  a0:	40 c0       	rjmp	.+128    	; 0x122 <__bad_interrupt>
  a2:	00 00       	nop
  a4:	3e c0       	rjmp	.+124    	; 0x122 <__bad_interrupt>
  a6:	00 00       	nop
  a8:	3c c0       	rjmp	.+120    	; 0x122 <__bad_interrupt>
  aa:	00 00       	nop
  ac:	3a c0       	rjmp	.+116    	; 0x122 <__bad_interrupt>
  ae:	00 00       	nop
  b0:	38 c0       	rjmp	.+112    	; 0x122 <__bad_interrupt>
  b2:	00 00       	nop
  b4:	36 c0       	rjmp	.+108    	; 0x122 <__bad_interrupt>
  b6:	00 00       	nop
  b8:	34 c0       	rjmp	.+104    	; 0x122 <__bad_interrupt>
  ba:	00 00       	nop
  bc:	32 c0       	rjmp	.+100    	; 0x122 <__bad_interrupt>
  be:	00 00       	nop
  c0:	30 c0       	rjmp	.+96     	; 0x122 <__bad_interrupt>
  c2:	00 00       	nop
  c4:	2e c0       	rjmp	.+92     	; 0x122 <__bad_interrupt>
  c6:	00 00       	nop
  c8:	2c c0       	rjmp	.+88     	; 0x122 <__bad_interrupt>
  ca:	00 00       	nop
  cc:	2a c0       	rjmp	.+84     	; 0x122 <__bad_interrupt>
  ce:	00 00       	nop
  d0:	28 c0       	rjmp	.+80     	; 0x122 <__bad_interrupt>
  d2:	00 00       	nop
  d4:	26 c0       	rjmp	.+76     	; 0x122 <__bad_interrupt>
  d6:	00 00       	nop
  d8:	24 c0       	rjmp	.+72     	; 0x122 <__bad_interrupt>
  da:	00 00       	nop
  dc:	22 c0       	rjmp	.+68     	; 0x122 <__bad_interrupt>
  de:	00 00       	nop
  e0:	20 c0       	rjmp	.+64     	; 0x122 <__bad_interrupt>
	...

000000e4 <__ctors_end>:
  e4:	11 24       	eor	r1, r1
  e6:	1f be       	out	0x3f, r1	; 63
  e8:	cf ef       	ldi	r28, 0xFF	; 255
  ea:	d1 e2       	ldi	r29, 0x21	; 33
  ec:	de bf       	out	0x3e, r29	; 62
  ee:	cd bf       	out	0x3d, r28	; 61
  f0:	00 e0       	ldi	r16, 0x00	; 0
  f2:	0c bf       	out	0x3c, r16	; 60

000000f4 <__do_copy_data>:
  f4:	12 e0       	ldi	r17, 0x02	; 2
  f6:	a0 e0       	ldi	r26, 0x00	; 0
  f8:	b2 e0       	ldi	r27, 0x02	; 2
  fa:	e8 ec       	ldi	r30, 0xC8	; 200
  fc:	f7 e0       	ldi	r31, 0x07	; 7
  fe:	00 e0       	ldi	r16, 0x00	; 0
 100:	0b bf       	out	0x3b, r16	; 59
 102:	02 c0       	rjmp	.+4      	; 0x108 <__do_copy_data+0x14>
 104:	07 90       	elpm	r0, Z+
 106:	0d 92       	st	X+, r0
 108:	a6 30       	cpi	r26, 0x06	; 6
 10a:	b1 07       	cpc	r27, r17
 10c:	d9 f7       	brne	.-10     	; 0x104 <__do_copy_data+0x10>

0000010e <__do_clear_bss>:
 10e:	27 e0       	ldi	r18, 0x07	; 7
 110:	a6 e0       	ldi	r26, 0x06	; 6
 112:	b2 e0       	ldi	r27, 0x02	; 2
 114:	01 c0       	rjmp	.+2      	; 0x118 <.do_clear_bss_start>

00000116 <.do_clear_bss_loop>:
 116:	1d 92       	st	X+, r1

00000118 <.do_clear_bss_start>:
 118:	ac 30       	cpi	r26, 0x0C	; 12
 11a:	b2 07       	cpc	r27, r18
 11c:	e1 f7       	brne	.-8      	; 0x116 <.do_clear_bss_loop>
 11e:	03 d3       	rcall	.+1542   	; 0x726 <main>
 120:	51 c3       	rjmp	.+1698   	; 0x7c4 <_exit>

00000122 <__bad_interrupt>:
 122:	6e cf       	rjmp	.-292    	; 0x0 <__vectors>

00000124 <Init_ports>:
void Init_ports(void)
{
	// Hard coded setup
	
	// Set up port B LEDS
	DDRB = 0xFF; // No inputs, all ports as outputs
 124:	8f ef       	ldi	r24, 0xFF	; 255
 126:	84 b9       	out	0x04, r24	; 4
	PORTB = 0xFF; // All LEDS are off
 128:	85 b9       	out	0x05, r24	; 5
	
	// Set up port D Buttons
	DDRD = 0x00;
 12a:	1a b8       	out	0x0a, r1	; 10
	PORTD = 0xFF; // Set pull up on the inputs
 12c:	8b b9       	out	0x0b, r24	; 11
	
	// Set up port C Switches
	DDRC = 0x00;
 12e:	17 b8       	out	0x07, r1	; 7
	PORTC = 0xFF; // Set pull up on the inputs
 130:	88 b9       	out	0x08, r24	; 8
 132:	08 95       	ret

00000134 <Init_UART0>:
void Init_UART0(uint16_t BAUDRATE)
{
	//ubrr = F_CPU/16uL/BAUDRATE;
	
	// Set baud rate to 9600 @ 8MHz
	UBRR0L = 51;
 134:	83 e3       	ldi	r24, 0x33	; 51
 136:	80 93 c4 00 	sts	0x00C4, r24
	UBRR0H = 0;
 13a:	10 92 c5 00 	sts	0x00C5, r1
	
	// No parity bit, 8 bit char, one stop bit
	UCSR0A = 0x00;
 13e:	10 92 c0 00 	sts	0x00C0, r1
	UCSR0B = 0b10011000;
 142:	88 e9       	ldi	r24, 0x98	; 152
 144:	80 93 c1 00 	sts	0x00C1, r24
	UCSR0C = 0b00000110;
 148:	86 e0       	ldi	r24, 0x06	; 6
 14a:	80 93 c2 00 	sts	0x00C2, r24
 14e:	08 95       	ret

00000150 <__vector_25>:
}

ISR(USART0_RX_vect)
{
 150:	1f 92       	push	r1
 152:	0f 92       	push	r0
 154:	0f b6       	in	r0, 0x3f	; 63
 156:	0f 92       	push	r0
 158:	11 24       	eor	r1, r1
 15a:	8f 93       	push	r24
 15c:	9f 93       	push	r25
	rx_ch = UDR0;             //read UART register into value
 15e:	80 91 c6 00 	lds	r24, 0x00C6
 162:	90 e0       	ldi	r25, 0x00	; 0
 164:	90 93 01 02 	sts	0x0201, r25
 168:	80 93 00 02 	sts	0x0200, r24
}
 16c:	9f 91       	pop	r25
 16e:	8f 91       	pop	r24
 170:	0f 90       	pop	r0
 172:	0f be       	out	0x3f, r0	; 63
 174:	0f 90       	pop	r0
 176:	1f 90       	pop	r1
 178:	18 95       	reti

0000017a <UART_out>:

void UART_out(uint8_t ch)
{
	while((UCSR0A & (1<<UDRE0)) == 0); // Wait until empty
 17a:	e0 ec       	ldi	r30, 0xC0	; 192
 17c:	f0 e0       	ldi	r31, 0x00	; 0
 17e:	90 81       	ld	r25, Z
 180:	95 ff       	sbrs	r25, 5
 182:	fd cf       	rjmp	.-6      	; 0x17e <UART_out+0x4>
	
	UDR0 = ch; // Put character to be sent in the output register
 184:	80 93 c6 00 	sts	0x00C6, r24
 188:	08 95       	ret

0000018a <MIDI_send>:
}

void MIDI_send(uint8_t command, uint8_t tone, uint8_t volume)
// Send the Midi command, not much really but abstracts the code a little.
{
 18a:	cf 93       	push	r28
 18c:	df 93       	push	r29
 18e:	d6 2f       	mov	r29, r22
 190:	c4 2f       	mov	r28, r20
	UART_out(command); // Command 7-bit
 192:	f3 df       	rcall	.-26     	; 0x17a <UART_out>
	UART_out(tone); // Note 7bit
 194:	8d 2f       	mov	r24, r29
 196:	f1 df       	rcall	.-30     	; 0x17a <UART_out>
	UART_out(volume >> 1); // Velocity 7 bit from 8 bit volume
 198:	8c 2f       	mov	r24, r28
 19a:	86 95       	lsr	r24
 19c:	ee df       	rcall	.-36     	; 0x17a <UART_out>
	
	// See Midi command table for exact bits to input.
}
 19e:	df 91       	pop	r29
 1a0:	cf 91       	pop	r28
 1a2:	08 95       	ret

000001a4 <MIDI_Conversion>:

uint8_t MIDI_Conversion(uint16_t pressed)
{
	uint16_t converted = 0;
	uint8_t offset = 48;
	uint8_t pitch = switches & 0x03;		// mask with two far right switches
 1a4:	20 91 06 02 	lds	r18, 0x0206
 1a8:	23 70       	andi	r18, 0x03	; 3
		 			// B4 = 59 or B5 = 71 or B6 = 83
	if( pressed &  0x80) converted = offset + 12 + 12 * pitch;
		 			// C5 = 60 or C6 = 72 or C7 = 84
*/

	switch(pressed)
 1aa:	80 38       	cpi	r24, 0x80	; 128
 1ac:	91 05       	cpc	r25, r1
 1ae:	09 f4       	brne	.+2      	; 0x1b2 <MIDI_Conversion+0xe>
 1b0:	a3 c0       	rjmp	.+326    	; 0x2f8 <MIDI_Conversion+0x154>
 1b2:	e8 f4       	brcc	.+58     	; 0x1ee <MIDI_Conversion+0x4a>
 1b4:	88 30       	cpi	r24, 0x08	; 8
 1b6:	91 05       	cpc	r25, r1
 1b8:	09 f4       	brne	.+2      	; 0x1bc <MIDI_Conversion+0x18>
 1ba:	6a c0       	rjmp	.+212    	; 0x290 <MIDI_Conversion+0xec>
 1bc:	60 f4       	brcc	.+24     	; 0x1d6 <MIDI_Conversion+0x32>
 1be:	82 30       	cpi	r24, 0x02	; 2
 1c0:	91 05       	cpc	r25, r1
 1c2:	09 f4       	brne	.+2      	; 0x1c6 <MIDI_Conversion+0x22>
 1c4:	4b c0       	rjmp	.+150    	; 0x25c <MIDI_Conversion+0xb8>
 1c6:	84 30       	cpi	r24, 0x04	; 4
 1c8:	91 05       	cpc	r25, r1
 1ca:	09 f4       	brne	.+2      	; 0x1ce <MIDI_Conversion+0x2a>
 1cc:	54 c0       	rjmp	.+168    	; 0x276 <MIDI_Conversion+0xd2>
 1ce:	01 97       	sbiw	r24, 0x01	; 1
 1d0:	09 f0       	breq	.+2      	; 0x1d4 <MIDI_Conversion+0x30>
 1d2:	0e c1       	rjmp	.+540    	; 0x3f0 <MIDI_Conversion+0x24c>
 1d4:	36 c0       	rjmp	.+108    	; 0x242 <MIDI_Conversion+0x9e>
 1d6:	80 32       	cpi	r24, 0x20	; 32
 1d8:	91 05       	cpc	r25, r1
 1da:	09 f4       	brne	.+2      	; 0x1de <MIDI_Conversion+0x3a>
 1dc:	73 c0       	rjmp	.+230    	; 0x2c4 <MIDI_Conversion+0x120>
 1de:	80 34       	cpi	r24, 0x40	; 64
 1e0:	91 05       	cpc	r25, r1
 1e2:	09 f4       	brne	.+2      	; 0x1e6 <MIDI_Conversion+0x42>
 1e4:	7c c0       	rjmp	.+248    	; 0x2de <MIDI_Conversion+0x13a>
 1e6:	40 97       	sbiw	r24, 0x10	; 16
 1e8:	09 f0       	breq	.+2      	; 0x1ec <MIDI_Conversion+0x48>
 1ea:	02 c1       	rjmp	.+516    	; 0x3f0 <MIDI_Conversion+0x24c>
 1ec:	5e c0       	rjmp	.+188    	; 0x2aa <MIDI_Conversion+0x106>
 1ee:	81 15       	cp	r24, r1
 1f0:	38 e0       	ldi	r19, 0x08	; 8
 1f2:	93 07       	cpc	r25, r19
 1f4:	09 f4       	brne	.+2      	; 0x1f8 <MIDI_Conversion+0x54>
 1f6:	b6 c0       	rjmp	.+364    	; 0x364 <MIDI_Conversion+0x1c0>
 1f8:	78 f4       	brcc	.+30     	; 0x218 <MIDI_Conversion+0x74>
 1fa:	81 15       	cp	r24, r1
 1fc:	32 e0       	ldi	r19, 0x02	; 2
 1fe:	93 07       	cpc	r25, r19
 200:	09 f4       	brne	.+2      	; 0x204 <MIDI_Conversion+0x60>
 202:	94 c0       	rjmp	.+296    	; 0x32c <MIDI_Conversion+0x188>
 204:	81 15       	cp	r24, r1
 206:	34 e0       	ldi	r19, 0x04	; 4
 208:	93 07       	cpc	r25, r19
 20a:	09 f4       	brne	.+2      	; 0x20e <MIDI_Conversion+0x6a>
 20c:	9d c0       	rjmp	.+314    	; 0x348 <MIDI_Conversion+0x1a4>
 20e:	81 15       	cp	r24, r1
 210:	91 40       	sbci	r25, 0x01	; 1
 212:	09 f0       	breq	.+2      	; 0x216 <MIDI_Conversion+0x72>
 214:	ed c0       	rjmp	.+474    	; 0x3f0 <MIDI_Conversion+0x24c>
 216:	7d c0       	rjmp	.+250    	; 0x312 <MIDI_Conversion+0x16e>
 218:	81 15       	cp	r24, r1
 21a:	30 e2       	ldi	r19, 0x20	; 32
 21c:	93 07       	cpc	r25, r19
 21e:	09 f4       	brne	.+2      	; 0x222 <MIDI_Conversion+0x7e>
 220:	bd c0       	rjmp	.+378    	; 0x39c <MIDI_Conversion+0x1f8>
 222:	28 f4       	brcc	.+10     	; 0x22e <MIDI_Conversion+0x8a>
 224:	81 15       	cp	r24, r1
 226:	90 41       	sbci	r25, 0x10	; 16
 228:	09 f4       	brne	.+2      	; 0x22c <MIDI_Conversion+0x88>
 22a:	aa c0       	rjmp	.+340    	; 0x380 <MIDI_Conversion+0x1dc>
 22c:	e1 c0       	rjmp	.+450    	; 0x3f0 <MIDI_Conversion+0x24c>
 22e:	81 15       	cp	r24, r1
 230:	30 e4       	ldi	r19, 0x40	; 64
 232:	93 07       	cpc	r25, r19
 234:	09 f4       	brne	.+2      	; 0x238 <MIDI_Conversion+0x94>
 236:	c0 c0       	rjmp	.+384    	; 0x3b8 <MIDI_Conversion+0x214>
 238:	81 15       	cp	r24, r1
 23a:	90 48       	sbci	r25, 0x80	; 128
 23c:	09 f4       	brne	.+2      	; 0x240 <MIDI_Conversion+0x9c>
 23e:	ca c0       	rjmp	.+404    	; 0x3d4 <MIDI_Conversion+0x230>
 240:	d7 c0       	rjmp	.+430    	; 0x3f0 <MIDI_Conversion+0x24c>
	{
		case 0x0001:
		converted = 48 + 12 * pitch;
 242:	82 2f       	mov	r24, r18
 244:	90 e0       	ldi	r25, 0x00	; 0
 246:	9c 01       	movw	r18, r24
 248:	22 0f       	add	r18, r18
 24a:	33 1f       	adc	r19, r19
 24c:	82 0f       	add	r24, r18
 24e:	93 1f       	adc	r25, r19
 250:	88 0f       	add	r24, r24
 252:	99 1f       	adc	r25, r25
 254:	88 0f       	add	r24, r24
 256:	99 1f       	adc	r25, r25
 258:	c0 96       	adiw	r24, 0x30	; 48
		break;				// C4 = 48 or C5 = 60 or C6 = 72
 25a:	08 95       	ret
		case 0x0002:
		converted = 50 + 12 * pitch;
 25c:	82 2f       	mov	r24, r18
 25e:	90 e0       	ldi	r25, 0x00	; 0
 260:	9c 01       	movw	r18, r24
 262:	22 0f       	add	r18, r18
 264:	33 1f       	adc	r19, r19
 266:	82 0f       	add	r24, r18
 268:	93 1f       	adc	r25, r19
 26a:	88 0f       	add	r24, r24
 26c:	99 1f       	adc	r25, r25
 26e:	88 0f       	add	r24, r24
 270:	99 1f       	adc	r25, r25
 272:	c2 96       	adiw	r24, 0x32	; 50
		break;				// D4 = 50 or D5 = 62 or D6 = 74
 274:	08 95       	ret
		case 0x0004:
		converted = 52 + 12 * pitch;
 276:	82 2f       	mov	r24, r18
 278:	90 e0       	ldi	r25, 0x00	; 0
 27a:	9c 01       	movw	r18, r24
 27c:	22 0f       	add	r18, r18
 27e:	33 1f       	adc	r19, r19
 280:	82 0f       	add	r24, r18
 282:	93 1f       	adc	r25, r19
 284:	88 0f       	add	r24, r24
 286:	99 1f       	adc	r25, r25
 288:	88 0f       	add	r24, r24
 28a:	99 1f       	adc	r25, r25
 28c:	c4 96       	adiw	r24, 0x34	; 52
		break;				// E4 = 52 or E5 = 64 or E6 = 76
 28e:	08 95       	ret
		case 0x0008:
		converted = 53 + 12 * pitch;
 290:	82 2f       	mov	r24, r18
 292:	90 e0       	ldi	r25, 0x00	; 0
 294:	9c 01       	movw	r18, r24
 296:	22 0f       	add	r18, r18
 298:	33 1f       	adc	r19, r19
 29a:	82 0f       	add	r24, r18
 29c:	93 1f       	adc	r25, r19
 29e:	88 0f       	add	r24, r24
 2a0:	99 1f       	adc	r25, r25
 2a2:	88 0f       	add	r24, r24
 2a4:	99 1f       	adc	r25, r25
 2a6:	c5 96       	adiw	r24, 0x35	; 53
		break;				// F4 = 53 or F5 = 65 or F6 = 77
 2a8:	08 95       	ret
		case 0x0010:
		converted = 55 + 12 * pitch;
 2aa:	82 2f       	mov	r24, r18
 2ac:	90 e0       	ldi	r25, 0x00	; 0
 2ae:	9c 01       	movw	r18, r24
 2b0:	22 0f       	add	r18, r18
 2b2:	33 1f       	adc	r19, r19
 2b4:	82 0f       	add	r24, r18
 2b6:	93 1f       	adc	r25, r19
 2b8:	88 0f       	add	r24, r24
 2ba:	99 1f       	adc	r25, r25
 2bc:	88 0f       	add	r24, r24
 2be:	99 1f       	adc	r25, r25
 2c0:	c7 96       	adiw	r24, 0x37	; 55
		break;				// G4 = 55 or G5 = 67 or G6 = 79
 2c2:	08 95       	ret
		case 0x0020:
		converted = 57 + 12 * pitch;
 2c4:	82 2f       	mov	r24, r18
 2c6:	90 e0       	ldi	r25, 0x00	; 0
 2c8:	9c 01       	movw	r18, r24
 2ca:	22 0f       	add	r18, r18
 2cc:	33 1f       	adc	r19, r19
 2ce:	82 0f       	add	r24, r18
 2d0:	93 1f       	adc	r25, r19
 2d2:	88 0f       	add	r24, r24
 2d4:	99 1f       	adc	r25, r25
 2d6:	88 0f       	add	r24, r24
 2d8:	99 1f       	adc	r25, r25
 2da:	c9 96       	adiw	r24, 0x39	; 57
		break;				// A4 = 57 or A5 = 69 or A6 = 81
 2dc:	08 95       	ret
		case 0x0040:
		converted = 59 + 12 * pitch;
 2de:	82 2f       	mov	r24, r18
 2e0:	90 e0       	ldi	r25, 0x00	; 0
 2e2:	9c 01       	movw	r18, r24
 2e4:	22 0f       	add	r18, r18
 2e6:	33 1f       	adc	r19, r19
 2e8:	82 0f       	add	r24, r18
 2ea:	93 1f       	adc	r25, r19
 2ec:	88 0f       	add	r24, r24
 2ee:	99 1f       	adc	r25, r25
 2f0:	88 0f       	add	r24, r24
 2f2:	99 1f       	adc	r25, r25
 2f4:	cb 96       	adiw	r24, 0x3b	; 59
		break;				// B4 = 59 or B5 = 71 or B6 = 83
 2f6:	08 95       	ret
		case 0x0080:
		converted = 60 + 12 * pitch;
 2f8:	82 2f       	mov	r24, r18
 2fa:	90 e0       	ldi	r25, 0x00	; 0
 2fc:	9c 01       	movw	r18, r24
 2fe:	22 0f       	add	r18, r18
 300:	33 1f       	adc	r19, r19
 302:	82 0f       	add	r24, r18
 304:	93 1f       	adc	r25, r19
 306:	88 0f       	add	r24, r24
 308:	99 1f       	adc	r25, r25
 30a:	88 0f       	add	r24, r24
 30c:	99 1f       	adc	r25, r25
 30e:	cc 96       	adiw	r24, 0x3c	; 60
		break;				// C5 = 60 or C6 = 72 or C7 = 84
 310:	08 95       	ret
		case 0x0100:
		converted = 62 + 12 * pitch;
 312:	82 2f       	mov	r24, r18
 314:	90 e0       	ldi	r25, 0x00	; 0
 316:	9c 01       	movw	r18, r24
 318:	22 0f       	add	r18, r18
 31a:	33 1f       	adc	r19, r19
 31c:	82 0f       	add	r24, r18
 31e:	93 1f       	adc	r25, r19
 320:	88 0f       	add	r24, r24
 322:	99 1f       	adc	r25, r25
 324:	88 0f       	add	r24, r24
 326:	99 1f       	adc	r25, r25
 328:	ce 96       	adiw	r24, 0x3e	; 62
		break;				// C4 = 48 or C5 = 60 or C6 = 72
 32a:	08 95       	ret
		case 0x0200:
		converted = 64 + 12 * pitch;
 32c:	82 2f       	mov	r24, r18
 32e:	90 e0       	ldi	r25, 0x00	; 0
 330:	9c 01       	movw	r18, r24
 332:	22 0f       	add	r18, r18
 334:	33 1f       	adc	r19, r19
 336:	82 0f       	add	r24, r18
 338:	93 1f       	adc	r25, r19
 33a:	88 0f       	add	r24, r24
 33c:	99 1f       	adc	r25, r25
 33e:	88 0f       	add	r24, r24
 340:	99 1f       	adc	r25, r25
 342:	80 5c       	subi	r24, 0xC0	; 192
 344:	9f 4f       	sbci	r25, 0xFF	; 255
		break;				// D4 = 50 or D5 = 62 or D6 = 74
 346:	08 95       	ret
		case 0x0400:
		converted = 65 + 12 * pitch;
 348:	82 2f       	mov	r24, r18
 34a:	90 e0       	ldi	r25, 0x00	; 0
 34c:	9c 01       	movw	r18, r24
 34e:	22 0f       	add	r18, r18
 350:	33 1f       	adc	r19, r19
 352:	82 0f       	add	r24, r18
 354:	93 1f       	adc	r25, r19
 356:	88 0f       	add	r24, r24
 358:	99 1f       	adc	r25, r25
 35a:	88 0f       	add	r24, r24
 35c:	99 1f       	adc	r25, r25
 35e:	8f 5b       	subi	r24, 0xBF	; 191
 360:	9f 4f       	sbci	r25, 0xFF	; 255
		break;				// E4 = 52 or E5 = 64 or E6 = 76
 362:	08 95       	ret
		case 0x0800:
		converted = 67 + 12 * pitch;
 364:	82 2f       	mov	r24, r18
 366:	90 e0       	ldi	r25, 0x00	; 0
 368:	9c 01       	movw	r18, r24
 36a:	22 0f       	add	r18, r18
 36c:	33 1f       	adc	r19, r19
 36e:	82 0f       	add	r24, r18
 370:	93 1f       	adc	r25, r19
 372:	88 0f       	add	r24, r24
 374:	99 1f       	adc	r25, r25
 376:	88 0f       	add	r24, r24
 378:	99 1f       	adc	r25, r25
 37a:	8d 5b       	subi	r24, 0xBD	; 189
 37c:	9f 4f       	sbci	r25, 0xFF	; 255
		break;				// F4 = 53 or F5 = 65 or F6 = 77
 37e:	08 95       	ret
		case 0x1000:
		converted = 69 + 12 * pitch;
 380:	82 2f       	mov	r24, r18
 382:	90 e0       	ldi	r25, 0x00	; 0
 384:	9c 01       	movw	r18, r24
 386:	22 0f       	add	r18, r18
 388:	33 1f       	adc	r19, r19
 38a:	82 0f       	add	r24, r18
 38c:	93 1f       	adc	r25, r19
 38e:	88 0f       	add	r24, r24
 390:	99 1f       	adc	r25, r25
 392:	88 0f       	add	r24, r24
 394:	99 1f       	adc	r25, r25
 396:	8b 5b       	subi	r24, 0xBB	; 187
 398:	9f 4f       	sbci	r25, 0xFF	; 255
		break;				// G4 = 55 or G5 = 67 or G6 = 79
 39a:	08 95       	ret
		case 0x2000:
		converted = 71 + 12 * pitch;
 39c:	82 2f       	mov	r24, r18
 39e:	90 e0       	ldi	r25, 0x00	; 0
 3a0:	9c 01       	movw	r18, r24
 3a2:	22 0f       	add	r18, r18
 3a4:	33 1f       	adc	r19, r19
 3a6:	82 0f       	add	r24, r18
 3a8:	93 1f       	adc	r25, r19
 3aa:	88 0f       	add	r24, r24
 3ac:	99 1f       	adc	r25, r25
 3ae:	88 0f       	add	r24, r24
 3b0:	99 1f       	adc	r25, r25
 3b2:	89 5b       	subi	r24, 0xB9	; 185
 3b4:	9f 4f       	sbci	r25, 0xFF	; 255
		break;				// A4 = 57 or A5 = 69 or A6 = 81
 3b6:	08 95       	ret
		case 0x4000:
		converted = 72 + 12 * pitch;
 3b8:	82 2f       	mov	r24, r18
 3ba:	90 e0       	ldi	r25, 0x00	; 0
 3bc:	9c 01       	movw	r18, r24
 3be:	22 0f       	add	r18, r18
 3c0:	33 1f       	adc	r19, r19
 3c2:	82 0f       	add	r24, r18
 3c4:	93 1f       	adc	r25, r19
 3c6:	88 0f       	add	r24, r24
 3c8:	99 1f       	adc	r25, r25
 3ca:	88 0f       	add	r24, r24
 3cc:	99 1f       	adc	r25, r25
 3ce:	88 5b       	subi	r24, 0xB8	; 184
 3d0:	9f 4f       	sbci	r25, 0xFF	; 255
		break;				// B4 = 59 or B5 = 71 or B6 = 83
 3d2:	08 95       	ret
		case 0x8000:
		converted = 74 + 12 * pitch;
 3d4:	82 2f       	mov	r24, r18
 3d6:	90 e0       	ldi	r25, 0x00	; 0
 3d8:	9c 01       	movw	r18, r24
 3da:	22 0f       	add	r18, r18
 3dc:	33 1f       	adc	r19, r19
 3de:	82 0f       	add	r24, r18
 3e0:	93 1f       	adc	r25, r19
 3e2:	88 0f       	add	r24, r24
 3e4:	99 1f       	adc	r25, r25
 3e6:	88 0f       	add	r24, r24
 3e8:	99 1f       	adc	r25, r25
 3ea:	86 5b       	subi	r24, 0xB6	; 182
 3ec:	9f 4f       	sbci	r25, 0xFF	; 255
		break;				// C5 = 60 or C6 = 72 or C7 = 84
 3ee:	08 95       	ret
	// See Midi command table for exact bits to input.
}

uint8_t MIDI_Conversion(uint16_t pressed)
{
	uint16_t converted = 0;
 3f0:	80 e0       	ldi	r24, 0x00	; 0
 3f2:	90 e0       	ldi	r25, 0x00	; 0
		default:
		break;
	}
	
	return converted;
}
 3f4:	08 95       	ret

000003f6 <init_adc>:

void init_adc(void)					// function for initializing ADC
{
	ADCSRA |= (1 << ADEN) | (1 << ADPS1) | (1 << ADIE) | (1<<ADSC);	// enable ADC, prescaler 4
 3f6:	ea e7       	ldi	r30, 0x7A	; 122
 3f8:	f0 e0       	ldi	r31, 0x00	; 0
 3fa:	80 81       	ld	r24, Z
 3fc:	8a 6c       	ori	r24, 0xCA	; 202
 3fe:	80 83       	st	Z, r24
	ADMUX |= (1 << REFS0) | (1 << ADLAR);	// internal 5V, 8 bits
 400:	ec e7       	ldi	r30, 0x7C	; 124
 402:	f0 e0       	ldi	r31, 0x00	; 0
 404:	80 81       	ld	r24, Z
 406:	80 66       	ori	r24, 0x60	; 96
 408:	80 83       	st	Z, r24
 40a:	08 95       	ret

0000040c <__vector_29>:
}

ISR(ADC_vect)						// read ADC using interrupt
{
 40c:	1f 92       	push	r1
 40e:	0f 92       	push	r0
 410:	0f b6       	in	r0, 0x3f	; 63
 412:	0f 92       	push	r0
 414:	11 24       	eor	r1, r1
 416:	0b b6       	in	r0, 0x3b	; 59
 418:	0f 92       	push	r0
 41a:	8f 93       	push	r24
 41c:	9f 93       	push	r25
 41e:	ef 93       	push	r30
 420:	ff 93       	push	r31
	volume = ADCH;									// save 8 bits
 422:	80 91 79 00 	lds	r24, 0x0079
 426:	80 93 04 02 	sts	0x0204, r24
	ADMUX = (ADMUX & 0xE0) | ((switches & 0x0C) >> 2);	// Mask and shift channel bits from switches
 42a:	ec e7       	ldi	r30, 0x7C	; 124
 42c:	f0 e0       	ldi	r31, 0x00	; 0
 42e:	90 81       	ld	r25, Z
 430:	80 91 06 02 	lds	r24, 0x0206
 434:	8c 70       	andi	r24, 0x0C	; 12
 436:	86 95       	lsr	r24
 438:	86 95       	lsr	r24
 43a:	90 7e       	andi	r25, 0xE0	; 224
 43c:	89 2b       	or	r24, r25
 43e:	80 83       	st	Z, r24
}
 440:	ff 91       	pop	r31
 442:	ef 91       	pop	r30
 444:	9f 91       	pop	r25
 446:	8f 91       	pop	r24
 448:	0f 90       	pop	r0
 44a:	0b be       	out	0x3b, r0	; 59
 44c:	0f 90       	pop	r0
 44e:	0f be       	out	0x3f, r0	; 63
 450:	0f 90       	pop	r0
 452:	1f 90       	pop	r1
 454:	18 95       	reti

00000456 <init_Timer0>:

void init_Timer0(void)
{
	TCCR0A = 0b00000000;			// normal mode
 456:	14 bc       	out	0x24, r1	; 36
	TCCR0B = 0b00000101;			// prescaler 1024
 458:	85 e0       	ldi	r24, 0x05	; 5
 45a:	85 bd       	out	0x25, r24	; 37
	TCNT0 = 0;					// overflow, 255*1024/(8*10^6) = 32.6ms delay at max
 45c:	16 bc       	out	0x26, r1	; 38
	TIMSK0 |= (1 << TOIE0);			// enable overflow interrupt enable
 45e:	ee e6       	ldi	r30, 0x6E	; 110
 460:	f0 e0       	ldi	r31, 0x00	; 0
 462:	80 81       	ld	r24, Z
 464:	81 60       	ori	r24, 0x01	; 1
 466:	80 83       	st	Z, r24
 468:	08 95       	ret

0000046a <__vector_23>:
}

ISR(TIMER0_OVF_vect)
{
 46a:	1f 92       	push	r1
 46c:	0f 92       	push	r0
 46e:	0f b6       	in	r0, 0x3f	; 63
 470:	0f 92       	push	r0
 472:	11 24       	eor	r1, r1
 474:	0b b6       	in	r0, 0x3b	; 59
 476:	0f 92       	push	r0
 478:	8f 93       	push	r24
 47a:	ef 93       	push	r30
 47c:	ff 93       	push	r31
	ADCSRA |= (1<<ADSC);
 47e:	ea e7       	ldi	r30, 0x7A	; 122
 480:	f0 e0       	ldi	r31, 0x00	; 0
 482:	80 81       	ld	r24, Z
 484:	80 64       	ori	r24, 0x40	; 64
 486:	80 83       	st	Z, r24
	//TCNT0 = 0;					// reset the count TCNT0
 488:	ff 91       	pop	r31
 48a:	ef 91       	pop	r30
 48c:	8f 91       	pop	r24
 48e:	0f 90       	pop	r0
 490:	0b be       	out	0x3b, r0	; 59
 492:	0f 90       	pop	r0
 494:	0f be       	out	0x3f, r0	; 63
 496:	0f 90       	pop	r0
 498:	1f 90       	pop	r1
 49a:	18 95       	reti

0000049c <init_Timer1>:
}

uint16_t TIME_read(void)
{
	return software_time;
}
 49c:	10 92 80 00 	sts	0x0080, r1
 4a0:	82 e0       	ldi	r24, 0x02	; 2
 4a2:	80 93 6f 00 	sts	0x006F, r24
 4a6:	10 92 85 00 	sts	0x0085, r1
 4aa:	10 92 84 00 	sts	0x0084, r1
 4ae:	8d e7       	ldi	r24, 0x7D	; 125
 4b0:	90 e0       	ldi	r25, 0x00	; 0
 4b2:	90 93 89 00 	sts	0x0089, r25
 4b6:	80 93 88 00 	sts	0x0088, r24
 4ba:	81 e0       	ldi	r24, 0x01	; 1
 4bc:	80 93 81 00 	sts	0x0081, r24
 4c0:	08 95       	ret

000004c2 <REC_ISR>:

void REC_ISR(uint16_t time){
 4c2:	cf 93       	push	r28
 4c4:	df 93       	push	r29
	if(PLAY){
 4c6:	80 91 07 02 	lds	r24, 0x0207
 4ca:	88 23       	and	r24, r24
 4cc:	c1 f1       	breq	.+112    	; 0x53e <REC_ISR+0x7c>
		MIDI_send(com[rec_index], tones[rec_index], vol[rec_index]);
 4ce:	80 91 09 02 	lds	r24, 0x0209
 4d2:	90 e0       	ldi	r25, 0x00	; 0
 4d4:	dc 01       	movw	r26, r24
 4d6:	a4 5f       	subi	r26, 0xF4	; 244
 4d8:	b9 4f       	sbci	r27, 0xF9	; 249
 4da:	fc 01       	movw	r30, r24
 4dc:	e4 5f       	subi	r30, 0xF4	; 244
 4de:	fc 4f       	sbci	r31, 0xFC	; 252
 4e0:	ec 01       	movw	r28, r24
 4e2:	c4 5f       	subi	r28, 0xF4	; 244
 4e4:	dd 4f       	sbci	r29, 0xFD	; 253
 4e6:	4c 91       	ld	r20, X
 4e8:	60 81       	ld	r22, Z
 4ea:	88 81       	ld	r24, Y
 4ec:	4e de       	rcall	.-868    	; 0x18a <MIDI_send>
		//PORTB = ~rec_index;
		
		// Last record will be of time zero
		// Restart the playback in that case
		if(com[rec_index] == 0){
 4ee:	80 91 09 02 	lds	r24, 0x0209
 4f2:	e8 2f       	mov	r30, r24
 4f4:	f0 e0       	ldi	r31, 0x00	; 0
 4f6:	e4 5f       	subi	r30, 0xF4	; 244
 4f8:	fd 4f       	sbci	r31, 0xFD	; 253
 4fa:	90 81       	ld	r25, Z
 4fc:	91 11       	cpse	r25, r1
 4fe:	0f c0       	rjmp	.+30     	; 0x51e <REC_ISR+0x5c>
			MIDI_send(com[0], tones[0], vol[0]);
 500:	40 91 0c 06 	lds	r20, 0x060C
 504:	60 91 0c 03 	lds	r22, 0x030C
 508:	80 91 0c 02 	lds	r24, 0x020C
 50c:	3e de       	rcall	.-900    	; 0x18a <MIDI_send>
			
			rec_index = 1;
 50e:	81 e0       	ldi	r24, 0x01	; 1
 510:	80 93 09 02 	sts	0x0209, r24
	software_comp = time;
}

void TIME_reset(void)
{
	software_time = 0;
 514:	10 92 0b 02 	sts	0x020B, r1
 518:	10 92 0a 02 	sts	0x020A, r1
 51c:	03 c0       	rjmp	.+6      	; 0x524 <REC_ISR+0x62>
			rec_index = 1;
			TIME_reset();
			
		}
		else{
			rec_index++;
 51e:	8f 5f       	subi	r24, 0xFF	; 255
 520:	80 93 09 02 	sts	0x0209, r24
		}
		
		TIME_Set_ISR(rec_time[rec_index]);	
 524:	e0 91 09 02 	lds	r30, 0x0209
 528:	f0 e0       	ldi	r31, 0x00	; 0
 52a:	ee 0f       	add	r30, r30
 52c:	ff 1f       	adc	r31, r31
 52e:	e4 5f       	subi	r30, 0xF4	; 244
 530:	fb 4f       	sbci	r31, 0xFB	; 251
 532:	80 81       	ld	r24, Z
 534:	91 81       	ldd	r25, Z+1	; 0x01
	}
}

void TIME_Set_ISR(uint16_t time)
{
	software_comp = time;
 536:	90 93 03 02 	sts	0x0203, r25
 53a:	80 93 02 02 	sts	0x0202, r24
		TIME_Set_ISR(rec_time[rec_index]);	
	
	}
	
	// There will be no new interrupt if PLAY == 0
}
 53e:	df 91       	pop	r29
 540:	cf 91       	pop	r28
 542:	08 95       	ret

00000544 <__vector_17>:
	// Start timer
	TCCR1B	= (1<<CS10); // Start, pre scaler 1
}

ISR(TIMER1_COMPA_vect)
{
 544:	1f 92       	push	r1
 546:	0f 92       	push	r0
 548:	0f b6       	in	r0, 0x3f	; 63
 54a:	0f 92       	push	r0
 54c:	11 24       	eor	r1, r1
 54e:	0b b6       	in	r0, 0x3b	; 59
 550:	0f 92       	push	r0
 552:	2f 93       	push	r18
 554:	3f 93       	push	r19
 556:	4f 93       	push	r20
 558:	5f 93       	push	r21
 55a:	6f 93       	push	r22
 55c:	7f 93       	push	r23
 55e:	8f 93       	push	r24
 560:	9f 93       	push	r25
 562:	af 93       	push	r26
 564:	bf 93       	push	r27
 566:	ef 93       	push	r30
 568:	ff 93       	push	r31
	software_time++;
 56a:	80 91 0a 02 	lds	r24, 0x020A
 56e:	90 91 0b 02 	lds	r25, 0x020B
 572:	01 96       	adiw	r24, 0x01	; 1
 574:	90 93 0b 02 	sts	0x020B, r25
 578:	80 93 0a 02 	sts	0x020A, r24
	PORTB = ~(rec_index >> 1); //((PLAY<<6) | (REC<<7) | rec_index);
 57c:	80 91 09 02 	lds	r24, 0x0209
 580:	86 95       	lsr	r24
 582:	80 95       	com	r24
 584:	85 b9       	out	0x05, r24	; 5
	if(software_time == software_comp)
 586:	20 91 0a 02 	lds	r18, 0x020A
 58a:	30 91 0b 02 	lds	r19, 0x020B
 58e:	80 91 02 02 	lds	r24, 0x0202
 592:	90 91 03 02 	lds	r25, 0x0203
 596:	28 17       	cp	r18, r24
 598:	39 07       	cpc	r19, r25
 59a:	29 f4       	brne	.+10     	; 0x5a6 <__vector_17+0x62>
	{
		REC_ISR(software_time);
 59c:	80 91 0a 02 	lds	r24, 0x020A
 5a0:	90 91 0b 02 	lds	r25, 0x020B
 5a4:	8e df       	rcall	.-228    	; 0x4c2 <REC_ISR>
	}
}
 5a6:	ff 91       	pop	r31
 5a8:	ef 91       	pop	r30
 5aa:	bf 91       	pop	r27
 5ac:	af 91       	pop	r26
 5ae:	9f 91       	pop	r25
 5b0:	8f 91       	pop	r24
 5b2:	7f 91       	pop	r23
 5b4:	6f 91       	pop	r22
 5b6:	5f 91       	pop	r21
 5b8:	4f 91       	pop	r20
 5ba:	3f 91       	pop	r19
 5bc:	2f 91       	pop	r18
 5be:	0f 90       	pop	r0
 5c0:	0b be       	out	0x3b, r0	; 59
 5c2:	0f 90       	pop	r0
 5c4:	0f be       	out	0x3f, r0	; 63
 5c6:	0f 90       	pop	r0
 5c8:	1f 90       	pop	r1
 5ca:	18 95       	reti

000005cc <REC_start>:
		rec_index++;
	}
}

void REC_start(void){
	REC = 1;
 5cc:	81 e0       	ldi	r24, 0x01	; 1
 5ce:	80 93 08 02 	sts	0x0208, r24
	rec_index = 0;
 5d2:	10 92 09 02 	sts	0x0209, r1
	software_comp = time;
}

void TIME_reset(void)
{
	software_time = 0;
 5d6:	10 92 0b 02 	sts	0x020B, r1
 5da:	10 92 0a 02 	sts	0x020A, r1
 5de:	08 95       	ret

000005e0 <REC_stop>:
	TIME_reset();
}

void REC_stop(void){
	// always record both on AND off commands = even number
	if(rec_index & 0x01){ // if not even
 5e0:	80 91 09 02 	lds	r24, 0x0209
 5e4:	80 ff       	sbrs	r24, 0
 5e6:	11 c0       	rjmp	.+34     	; 0x60a <REC_stop+0x2a>
		REC_add((com[rec_index-1] & 0b11101111), tones[rec_index-1]);
 5e8:	90 e0       	ldi	r25, 0x00	; 0
 5ea:	01 97       	sbiw	r24, 0x01	; 1
 5ec:	fc 01       	movw	r30, r24
 5ee:	e4 5f       	subi	r30, 0xF4	; 244
 5f0:	fc 4f       	sbci	r31, 0xFC	; 252
 5f2:	dc 01       	movw	r26, r24
 5f4:	a4 5f       	subi	r26, 0xF4	; 244
 5f6:	bd 4f       	sbci	r27, 0xFD	; 253
 5f8:	8c 91       	ld	r24, X
 5fa:	60 81       	ld	r22, Z
 5fc:	8f 7e       	andi	r24, 0xEF	; 239
 5fe:	22 d0       	rcall	.+68     	; 0x644 <REC_add>
		//com[rec_index]  = (com[rec_index-1] & 0b11101111); 
		//tones[rec_index] = tones[rec_index-1];
		//vol[rec_index] = volume;
		rec_index++;
 600:	80 91 09 02 	lds	r24, 0x0209
 604:	8f 5f       	subi	r24, 0xFF	; 255
 606:	80 93 09 02 	sts	0x0209, r24
	}
	
	com[rec_index]  = 0;
 60a:	80 91 09 02 	lds	r24, 0x0209
 60e:	90 e0       	ldi	r25, 0x00	; 0
 610:	fc 01       	movw	r30, r24
 612:	e4 5f       	subi	r30, 0xF4	; 244
 614:	fd 4f       	sbci	r31, 0xFD	; 253
 616:	10 82       	st	Z, r1
	tones[rec_index] = 0;
 618:	fc 01       	movw	r30, r24
 61a:	e4 5f       	subi	r30, 0xF4	; 244
 61c:	fc 4f       	sbci	r31, 0xFC	; 252
 61e:	10 82       	st	Z, r1
	vol[rec_index] = 0;
 620:	fc 01       	movw	r30, r24
 622:	e4 5f       	subi	r30, 0xF4	; 244
 624:	f9 4f       	sbci	r31, 0xF9	; 249
 626:	10 82       	st	Z, r1
	software_time = 0;
}

uint16_t TIME_read(void)
{
	return software_time;
 628:	20 91 0a 02 	lds	r18, 0x020A
 62c:	30 91 0b 02 	lds	r19, 0x020B
	}
	
	com[rec_index]  = 0;
	tones[rec_index] = 0;
	vol[rec_index] = 0;
	rec_time[rec_index] = TIME_read();
 630:	fc 01       	movw	r30, r24
 632:	ee 0f       	add	r30, r30
 634:	ff 1f       	adc	r31, r31
 636:	e4 5f       	subi	r30, 0xF4	; 244
 638:	fb 4f       	sbci	r31, 0xFB	; 251
 63a:	31 83       	std	Z+1, r19	; 0x01
 63c:	20 83       	st	Z, r18
	REC = 0;
 63e:	10 92 08 02 	sts	0x0208, r1
 642:	08 95       	ret

00000644 <REC_add>:
	}
	
	// There will be no new interrupt if PLAY == 0
}

void REC_add(uint8_t command, uint8_t tone){
 644:	cf 93       	push	r28
 646:	df 93       	push	r29
 648:	d8 2f       	mov	r29, r24
 64a:	c6 2f       	mov	r28, r22
	
	// Stop recording if overflows = reset and starts from clean
	if(rec_index == 254){
 64c:	90 91 09 02 	lds	r25, 0x0209
 650:	9e 3f       	cpi	r25, 0xFE	; 254
 652:	09 f4       	brne	.+2      	; 0x656 <REC_add+0x12>
		REC_stop();
 654:	c5 df       	rcall	.-118    	; 0x5e0 <REC_stop>
	}
	
	if(REC){ // Recording 
 656:	90 91 08 02 	lds	r25, 0x0208
 65a:	99 23       	and	r25, r25
 65c:	81 f1       	breq	.+96     	; 0x6be <REC_add+0x7a>
		com[rec_index]  = command;
 65e:	90 91 09 02 	lds	r25, 0x0209
 662:	29 2f       	mov	r18, r25
 664:	30 e0       	ldi	r19, 0x00	; 0
 666:	f9 01       	movw	r30, r18
 668:	e4 5f       	subi	r30, 0xF4	; 244
 66a:	fd 4f       	sbci	r31, 0xFD	; 253
 66c:	d0 83       	st	Z, r29
		tones[rec_index] = tone;
 66e:	f9 01       	movw	r30, r18
 670:	e4 5f       	subi	r30, 0xF4	; 244
 672:	fc 4f       	sbci	r31, 0xFC	; 252
 674:	c0 83       	st	Z, r28
		vol[rec_index] = volume;
 676:	80 91 04 02 	lds	r24, 0x0204
 67a:	f9 01       	movw	r30, r18
 67c:	e4 5f       	subi	r30, 0xF4	; 244
 67e:	f9 4f       	sbci	r31, 0xF9	; 249
 680:	80 83       	st	Z, r24
		
		// Recording starts on first tone, so set time = 0 and reset timer
		if(rec_index == 0){
 682:	91 11       	cpse	r25, r1
 684:	0c c0       	rjmp	.+24     	; 0x69e <REC_add+0x5a>
			rec_time[rec_index] = 0;
 686:	f9 01       	movw	r30, r18
 688:	ee 0f       	add	r30, r30
 68a:	ff 1f       	adc	r31, r31
 68c:	e4 5f       	subi	r30, 0xF4	; 244
 68e:	fb 4f       	sbci	r31, 0xFB	; 251
 690:	11 82       	std	Z+1, r1	; 0x01
 692:	10 82       	st	Z, r1
	software_comp = time;
}

void TIME_reset(void)
{
	software_time = 0;
 694:	10 92 0b 02 	sts	0x020B, r1
 698:	10 92 0a 02 	sts	0x020A, r1
 69c:	0b c0       	rjmp	.+22     	; 0x6b4 <REC_add+0x70>
}

uint16_t TIME_read(void)
{
	return software_time;
 69e:	80 91 0a 02 	lds	r24, 0x020A
 6a2:	90 91 0b 02 	lds	r25, 0x020B
			
			
			
		}
		
		else { rec_time[rec_index] = TIME_read();}
 6a6:	f9 01       	movw	r30, r18
 6a8:	ee 0f       	add	r30, r30
 6aa:	ff 1f       	adc	r31, r31
 6ac:	e4 5f       	subi	r30, 0xF4	; 244
 6ae:	fb 4f       	sbci	r31, 0xFB	; 251
 6b0:	91 83       	std	Z+1, r25	; 0x01
 6b2:	80 83       	st	Z, r24
			
		rec_index++;
 6b4:	80 91 09 02 	lds	r24, 0x0209
 6b8:	8f 5f       	subi	r24, 0xFF	; 255
 6ba:	80 93 09 02 	sts	0x0209, r24
	}
}
 6be:	df 91       	pop	r29
 6c0:	cf 91       	pop	r28
 6c2:	08 95       	ret

000006c4 <REC_state>:
	REC = 0;
}

void REC_state(uint8_t switches)
// For starting the play. Always from the start
{
 6c4:	cf 93       	push	r28
 6c6:	c8 2f       	mov	r28, r24
	if(switches & 0x40){
 6c8:	86 ff       	sbrs	r24, 6
 6ca:	11 c0       	rjmp	.+34     	; 0x6ee <REC_state+0x2a>
		if(!PLAY){  // If play channel one is on
 6cc:	80 91 07 02 	lds	r24, 0x0207
 6d0:	81 11       	cpse	r24, r1
 6d2:	1a c0       	rjmp	.+52     	; 0x708 <REC_state+0x44>
			PLAY = 1;
 6d4:	81 e0       	ldi	r24, 0x01	; 1
 6d6:	80 93 07 02 	sts	0x0207, r24
			
			// First note is on time = 0 which doesn't exist in our approach,
			// Therefor call the ICR for the first tone and then reset timer.
			rec_index = 0;
 6da:	10 92 09 02 	sts	0x0209, r1
			REC_ISR(0);
 6de:	80 e0       	ldi	r24, 0x00	; 0
 6e0:	90 e0       	ldi	r25, 0x00	; 0
 6e2:	ef de       	rcall	.-546    	; 0x4c2 <REC_ISR>
	software_comp = time;
}

void TIME_reset(void)
{
	software_time = 0;
 6e4:	10 92 0b 02 	sts	0x020B, r1
 6e8:	10 92 0a 02 	sts	0x020A, r1
 6ec:	0d c0       	rjmp	.+26     	; 0x708 <REC_state+0x44>
			REC_ISR(0);
			TIME_reset();
		}
	}
	else{ // If should be off
		if(PLAY){ // Turn off if on
 6ee:	80 91 07 02 	lds	r24, 0x0207
 6f2:	88 23       	and	r24, r24
 6f4:	49 f0       	breq	.+18     	; 0x708 <REC_state+0x44>
			PLAY = 0;
 6f6:	10 92 07 02 	sts	0x0207, r1
			
			// Make sure to end the last tone!
			if(rec_index & 0x01){
 6fa:	80 91 09 02 	lds	r24, 0x0209
 6fe:	80 ff       	sbrs	r24, 0
 700:	03 c0       	rjmp	.+6      	; 0x708 <REC_state+0x44>
				REC_ISR(0);
 702:	80 e0       	ldi	r24, 0x00	; 0
 704:	90 e0       	ldi	r25, 0x00	; 0
 706:	dd de       	rcall	.-582    	; 0x4c2 <REC_ISR>
			}
		}
	}
	
	if(switches & 0x80){ // Recording?
 708:	cc 23       	and	r28, r28
 70a:	34 f4       	brge	.+12     	; 0x718 <REC_state+0x54>
		if(REC == 0){	 // Change from before?
 70c:	80 91 08 02 	lds	r24, 0x0208
 710:	81 11       	cpse	r24, r1
 712:	07 c0       	rjmp	.+14     	; 0x722 <REC_state+0x5e>
			REC_start();
 714:	5b df       	rcall	.-330    	; 0x5cc <REC_start>
 716:	05 c0       	rjmp	.+10     	; 0x722 <REC_state+0x5e>
		}
	}
	else{
		if(REC == 1){ // If rec on, but swithces not in that position, stop
 718:	80 91 08 02 	lds	r24, 0x0208
 71c:	81 30       	cpi	r24, 0x01	; 1
 71e:	09 f4       	brne	.+2      	; 0x722 <REC_state+0x5e>
			REC_stop();
 720:	5f df       	rcall	.-322    	; 0x5e0 <REC_stop>
		}
	}
 722:	cf 91       	pop	r28
 724:	08 95       	ret

00000726 <main>:

#include "main.h"

int main(void)
{
	Init_ports();
 726:	fe dc       	rcall	.-1540   	; 0x124 <Init_ports>
	Init_UART0(9600);
 728:	80 e8       	ldi	r24, 0x80	; 128
 72a:	95 e2       	ldi	r25, 0x25	; 37
 72c:	03 dd       	rcall	.-1530   	; 0x134 <Init_UART0>
	init_Timer1();
 72e:	b6 de       	rcall	.-660    	; 0x49c <init_Timer1>
	init_Timer0();
 730:	92 de       	rcall	.-732    	; 0x456 <init_Timer0>
	init_adc();
 732:	61 de       	rcall	.-830    	; 0x3f6 <init_adc>
	sei();
 734:	78 94       	sei
	
	// Pressed buttons
	uint16_t previus = 0x00;
 736:	00 e0       	ldi	r16, 0x00	; 0
 738:	10 e0       	ldi	r17, 0x00	; 0
 73a:	01 c0       	rjmp	.+2      	; 0x73e <main+0x18>
*/

#include "main.h"

int main(void)
{
 73c:	8e 01       	movw	r16, r28
	
	while
	(1)
	{
		
		current = (~PIND) | (~PINA << 8);
 73e:	c9 b1       	in	r28, 0x09	; 9
 740:	80 b1       	in	r24, 0x00	; 0
 742:	90 e0       	ldi	r25, 0x00	; 0
 744:	80 95       	com	r24
 746:	90 95       	com	r25
 748:	98 2f       	mov	r25, r24
 74a:	88 27       	eor	r24, r24
 74c:	d0 e0       	ldi	r29, 0x00	; 0
 74e:	c0 95       	com	r28
 750:	d0 95       	com	r29
 752:	c8 2b       	or	r28, r24
 754:	d9 2b       	or	r29, r25
		switches = ~PINC; // Update switches
 756:	86 b1       	in	r24, 0x06	; 6
 758:	80 95       	com	r24
 75a:	80 93 06 02 	sts	0x0206, r24
		REC_state(switches);
 75e:	80 91 06 02 	lds	r24, 0x0206
 762:	b0 df       	rcall	.-160    	; 0x6c4 <REC_state>
		//PORTB = ~switches; // rx_ch;
		
		change = current^previus;
 764:	98 01       	movw	r18, r16
 766:	2c 27       	eor	r18, r28
 768:	3d 27       	eor	r19, r29
		
		if(current & change) // Note on
 76a:	c9 01       	movw	r24, r18
 76c:	8c 23       	and	r24, r28
 76e:	9d 23       	and	r25, r29
 770:	00 97       	sbiw	r24, 0x00	; 0
 772:	89 f0       	breq	.+34     	; 0x796 <main+0x70>
		{
			command = 0b10010000 | (switches & 0x0C) >> 2;
 774:	10 91 06 02 	lds	r17, 0x0206
 778:	1c 70       	andi	r17, 0x0C	; 12
 77a:	16 95       	lsr	r17
 77c:	16 95       	lsr	r17
 77e:	10 69       	ori	r17, 0x90	; 144
			tone = MIDI_Conversion(current & change);
 780:	11 dd       	rcall	.-1502   	; 0x1a4 <MIDI_Conversion>
 782:	08 2f       	mov	r16, r24
			
			REC_add(command, tone);
 784:	68 2f       	mov	r22, r24
 786:	81 2f       	mov	r24, r17
 788:	5d df       	rcall	.-326    	; 0x644 <REC_add>
			
			MIDI_send(command, tone, volume);
 78a:	40 91 04 02 	lds	r20, 0x0204
 78e:	60 2f       	mov	r22, r16
 790:	81 2f       	mov	r24, r17
 792:	fb dc       	rcall	.-1546   	; 0x18a <MIDI_send>
 794:	d3 cf       	rjmp	.-90     	; 0x73c <main+0x16>
			
			//UART_out(0b10010001); // Command
			//UART_out(MIDI_Conversion(current & change)); // Note 7bit
			//UART_out(80 ); //volume(switches & 0x03)); // Velocity 7 bit
		}
		else if(previus & change) // Note off
 796:	c9 01       	movw	r24, r18
 798:	80 23       	and	r24, r16
 79a:	91 23       	and	r25, r17
 79c:	00 97       	sbiw	r24, 0x00	; 0
 79e:	71 f2       	breq	.-100    	; 0x73c <main+0x16>
		{

			command = 0b10000000 | ((switches & 0x0C) >> 2);
 7a0:	20 91 06 02 	lds	r18, 0x0206
 7a4:	2c 70       	andi	r18, 0x0C	; 12
 7a6:	26 95       	lsr	r18
 7a8:	26 95       	lsr	r18
 7aa:	20 68       	ori	r18, 0x80	; 128
 7ac:	f2 2e       	mov	r15, r18
			
			tone = MIDI_Conversion(previus & change);
 7ae:	fa dc       	rcall	.-1548   	; 0x1a4 <MIDI_Conversion>
 7b0:	18 2f       	mov	r17, r24
						
			REC_add(command, tone);
 7b2:	68 2f       	mov	r22, r24
 7b4:	8f 2d       	mov	r24, r15
 7b6:	46 df       	rcall	.-372    	; 0x644 <REC_add>
			MIDI_send(command, tone, volume);
 7b8:	40 91 04 02 	lds	r20, 0x0204
 7bc:	61 2f       	mov	r22, r17
 7be:	8f 2d       	mov	r24, r15
 7c0:	e4 dc       	rcall	.-1592   	; 0x18a <MIDI_send>
 7c2:	bc cf       	rjmp	.-136    	; 0x73c <main+0x16>

000007c4 <_exit>:
 7c4:	f8 94       	cli

000007c6 <__stop_program>:
 7c6:	ff cf       	rjmp	.-2      	; 0x7c6 <__stop_program>
